target datalayout = "e-m:e-p270:32:32-p271:32:32-p272:64:64-i64:64-i128:128-f80:128-n8:16:32:64-S128"
target triple = "x86_64-pc-linux-gnu"

%struct._zend_executor_globals = type { %struct._zval_struct, %struct._zval_struct, [32 x ptr], ptr, ptr, %struct._zend_array, %struct._zend_array, ptr, i32, i32, ptr, ptr, ptr, ptr, ptr, ptr, i64, ptr, ptr, i32, i32, i64, i32, i32, i32, i8, i8, %struct.zend_atomic_bool_s, %struct.zend_atomic_bool_s, ptr, i64, ptr, ptr, %struct._zend_array, %struct._zend_array, i32, i8, %struct._zval_struct, %struct._zval_struct, %struct._zend_stack, %struct._zend_stack, %struct._zend_stack, ptr, i32, i32, i64, ptr, ptr, ptr, %struct._zend_objects_store, ptr, ptr, ptr, [3 x %struct._zend_op], ptr, i8, i8, i64, i32, i32, ptr, [16 x %struct._HashTableIterator], ptr, %union._zend_function, %struct._zend_op, %struct._zend_array, i64, %struct.zend_get_gc_buffer, ptr, ptr, ptr, i64, i8, i32, ptr, ptr, i64, %struct._zend_call_stack, i64, i64, [6 x ptr] }
%struct.zend_atomic_bool_s = type { i8 }
%struct._zval_struct = type { %union._zend_value, %union.anon, %union.anon.2 }
%union._zend_value = type { i64 }
%union.anon = type { i32 }
%union.anon.2 = type { i32 }
%struct._zend_stack = type { i32, i32, i32, ptr }
%struct._zend_objects_store = type { ptr, i32, i32, i32 }
%struct._HashTableIterator = type { ptr, i32, i32 }
%union._zend_function = type { %struct._zend_op_array }
%struct._zend_op_array = type { i8, [3 x i8], i32, ptr, ptr, ptr, i32, i32, ptr, ptr, ptr, ptr, i32, i32, i32, i32, ptr, ptr, ptr, ptr, ptr, i32, i32, ptr, ptr, ptr, i32, i32, i32, i32, ptr, ptr, [6 x ptr] }
%struct._zend_op = type { ptr, %union._znode_op, %union._znode_op, %union._znode_op, i32, i32, i8, i8, i8, i8 }
%union._znode_op = type { i32 }
%struct._zend_array = type { %struct._zend_refcounted_h, %union.anon.4, i32, %union.anon.6, i32, i32, i32, i32, i64, ptr }
%struct._zend_refcounted_h = type { i32, %union.anon.3 }
%union.anon.3 = type { i32 }
%union.anon.4 = type { i32 }
%union.anon.6 = type { ptr }
%struct.zend_get_gc_buffer = type { ptr, ptr, ptr }
%struct._zend_call_stack = type { ptr, i64 }
%struct._zend_execute_data = type { ptr, ptr, ptr, ptr, %struct._zval_struct, ptr, ptr, ptr, ptr }
%struct._spl_fixedarray_object = type { %struct._spl_fixedarray, ptr, %struct._zend_object }
%struct._spl_fixedarray = type { i64, ptr, i64 }
%struct._zend_object = type { %struct._zend_refcounted_h, i32, ptr, ptr, ptr, [1 x %struct._zval_struct] }
%struct._zend_refcounted = type { %struct._zend_refcounted_h }
%struct.anon.0 = type { i8, i8, %union.anon.1 }
%union.anon.1 = type { i16 }
%struct._Bucket = type { %struct._zval_struct, i64, ptr }

@executor_globals = external global %struct._zend_executor_globals, align 8
@.str.2 = private unnamed_addr constant [2 x i8] c"h\00", align 1

; Function Attrs: nounwind uwtable
define internal void @spl_fixedarray_init_non_empty_struct(ptr noundef %0, i64 noundef %1) #0 {
  %3 = alloca ptr, align 8
  %4 = alloca i64, align 8
  store ptr %0, ptr %3, align 8
  store i64 %1, ptr %4, align 8
  %5 = load ptr, ptr %3, align 8
  %6 = getelementptr inbounds %struct._spl_fixedarray, ptr %5, i32 0, i32 0
  store i64 0, ptr %6, align 8
  %7 = load i64, ptr %4, align 8
  %8 = icmp ne i64 %7, 0
  br i1 %8, label %9, label %12

9:                                                ; preds = %2
  %10 = load i64, ptr %4, align 8
  %11 = call noalias ptr @_safe_emalloc(i64 noundef %10, i64 noundef 16, i64 noundef 0)
  br label %13

12:                                               ; preds = %2
  br label %13

13:                                               ; preds = %12, %9
  %14 = phi ptr [ %11, %9 ], [ null, %12 ]
  %15 = load ptr, ptr %3, align 8
  %16 = getelementptr inbounds %struct._spl_fixedarray, ptr %15, i32 0, i32 1
  store ptr %14, ptr %16, align 8
  %17 = load i64, ptr %4, align 8
  %18 = load ptr, ptr %3, align 8
  %19 = getelementptr inbounds %struct._spl_fixedarray, ptr %18, i32 0, i32 0
  store i64 %17, ptr %19, align 8
  %20 = load ptr, ptr %3, align 8
  %21 = getelementptr inbounds %struct._spl_fixedarray, ptr %20, i32 0, i32 2
  store i64 -1, ptr %21, align 8
  ret void
}

; Function Attrs: nounwind uwtable
define internal ptr @spl_fixed_array_from_obj(ptr noundef %0) #0 {
  %2 = alloca ptr, align 8
  store ptr %0, ptr %2, align 8
  %3 = load ptr, ptr %2, align 8
  %4 = getelementptr inbounds i8, ptr %3, i64 -32
  ret ptr %4
}

; Function Attrs: nounwind uwtable
define hidden void @zim_SplFixedArray___unserialize(ptr noundef %0, ptr noundef %1) #0 {
  %3 = alloca ptr, align 8
  %4 = alloca ptr, align 8
  %5 = alloca ptr, align 8
  %6 = alloca ptr, align 8
  %7 = alloca ptr, align 8
  %8 = alloca ptr, align 8
  %9 = alloca ptr, align 8
  %10 = alloca ptr, align 8
  %11 = alloca ptr, align 8
  %12 = alloca %struct._zval_struct, align 8
  %13 = alloca ptr, align 8
  %14 = alloca ptr, align 8
  %15 = alloca i64, align 8
  %16 = alloca ptr, align 8
  %17 = alloca ptr, align 8
  %18 = alloca ptr, align 8
  %19 = alloca i64, align 8
  %20 = alloca ptr, align 8
  %21 = alloca i32, align 4
  %22 = alloca i64, align 8
  %23 = alloca ptr, align 8
  %24 = alloca i32, align 4
  %25 = alloca ptr, align 8
  %26 = alloca ptr, align 8
  %27 = alloca ptr, align 8
  %28 = alloca ptr, align 8
  %29 = alloca ptr, align 8
  %30 = alloca i32, align 4
  store ptr %0, ptr %8, align 8
  store ptr %1, ptr %9, align 8
  %31 = load ptr, ptr %8, align 8
  %32 = getelementptr inbounds %struct._zend_execute_data, ptr %31, i32 0, i32 4
  %33 = getelementptr inbounds %struct._zval_struct, ptr %32, i32 0, i32 0
  %34 = load ptr, ptr %33, align 8
  %35 = call ptr @spl_fixed_array_from_obj(ptr noundef %34)
  store ptr %35, ptr %10, align 8
  %36 = load ptr, ptr %8, align 8
  %37 = getelementptr inbounds %struct._zend_execute_data, ptr %36, i32 0, i32 4
  %38 = getelementptr inbounds %struct._zval_struct, ptr %37, i32 0, i32 2
  %39 = load i32, ptr %38, align 4
  %40 = call i32 (i32, ptr, ...) @zend_parse_parameters(i32 noundef %39, ptr noundef @.str.2, ptr noundef %11)
  %41 = icmp eq i32 %40, -1
  br i1 %41, label %42, label %47

42:                                               ; preds = %2
  br label %43

43:                                               ; preds = %42
  %44 = load ptr, ptr getelementptr inbounds (%struct._zend_executor_globals, ptr @executor_globals, i32 0, i32 50), align 8
  %45 = icmp ne ptr %44, null
  call void @llvm.assume(i1 %45)
  br label %262

46:                                               ; No predecessors!
  br label %47

47:                                               ; preds = %46, %2
  %48 = load ptr, ptr %10, align 8
  %49 = getelementptr inbounds %struct._spl_fixedarray_object, ptr %48, i32 0, i32 0
  %50 = getelementptr inbounds %struct._spl_fixedarray, ptr %49, i32 0, i32 0
  %51 = load i64, ptr %50, align 8
  %52 = icmp eq i64 %51, 0
  br i1 %52, label %53, label %262

53:                                               ; preds = %47
  %54 = load ptr, ptr %11, align 8
  store ptr %54, ptr %7, align 8
  %55 = load ptr, ptr %7, align 8
  %56 = getelementptr inbounds %struct._zend_array, ptr %55, i32 0, i32 5
  %57 = load i32, ptr %56, align 4
  %58 = zext i32 %57 to i64
  store i64 %58, ptr %15, align 8
  %59 = load ptr, ptr %10, align 8
  %60 = getelementptr inbounds %struct._spl_fixedarray_object, ptr %59, i32 0, i32 0
  %61 = load i64, ptr %15, align 8
  call void @spl_fixedarray_init_non_empty_struct(ptr noundef %60, i64 noundef %61)
  %62 = load i64, ptr %15, align 8
  %63 = icmp ne i64 %62, 0
  br i1 %63, label %65, label %64

64:                                               ; preds = %53
  br label %262

65:                                               ; preds = %53
  br label %66

66:                                               ; preds = %65
  %67 = call ptr @_zend_new_array_0()
  store ptr %67, ptr %16, align 8
  store ptr %12, ptr %17, align 8
  %68 = load ptr, ptr %16, align 8
  %69 = load ptr, ptr %17, align 8
  %70 = getelementptr inbounds %struct._zval_struct, ptr %69, i32 0, i32 0
  store ptr %68, ptr %70, align 8
  %71 = load ptr, ptr %17, align 8
  %72 = getelementptr inbounds %struct._zval_struct, ptr %71, i32 0, i32 1
  store i32 775, ptr %72, align 8
  br label %73

73:                                               ; preds = %66
  %74 = load ptr, ptr %10, align 8
  %75 = getelementptr inbounds %struct._spl_fixedarray_object, ptr %74, i32 0, i32 0
  %76 = getelementptr inbounds %struct._spl_fixedarray, ptr %75, i32 0, i32 0
  store i64 0, ptr %76, align 8
  br label %77

77:                                               ; preds = %73
  %78 = load ptr, ptr %11, align 8
  store ptr %78, ptr %18, align 8
  store ptr null, ptr %20, align 8
  store i32 0, ptr %21, align 4
  %79 = load ptr, ptr %18, align 8
  %80 = getelementptr inbounds %struct._zend_array, ptr %79, i32 0, i32 1
  %81 = load i32, ptr %80, align 8
  %82 = xor i32 %81, -1
  %83 = and i32 %82, 4
  %84 = zext i32 %83 to i64
  %85 = mul i64 %84, 4
  %86 = add i64 16, %85
  store i64 %86, ptr %22, align 8
  %87 = load ptr, ptr %18, align 8
  %88 = getelementptr inbounds %struct._zend_array, ptr %87, i32 0, i32 3
  %89 = load ptr, ptr %88, align 8
  %90 = load i32, ptr %21, align 4
  %91 = zext i32 %90 to i64
  %92 = load i64, ptr %22, align 8
  %93 = mul i64 %91, %92
  %94 = getelementptr inbounds i8, ptr %89, i64 %93
  store ptr %94, ptr %23, align 8
  %95 = load ptr, ptr %18, align 8
  %96 = getelementptr inbounds %struct._zend_array, ptr %95, i32 0, i32 4
  %97 = load i32, ptr %96, align 8
  %98 = load i32, ptr %21, align 4
  %99 = sub i32 %97, %98
  store i32 %99, ptr %24, align 4
  br label %100

100:                                              ; preds = %217, %77
  %101 = load i32, ptr %24, align 4
  %102 = icmp ugt i32 %101, 0
  br i1 %102, label %103, label %220

103:                                              ; preds = %100
  %104 = load ptr, ptr %23, align 8
  store ptr %104, ptr %25, align 8
  %105 = load ptr, ptr %18, align 8
  %106 = getelementptr inbounds %struct._zend_array, ptr %105, i32 0, i32 1
  %107 = load i32, ptr %106, align 8
  %108 = and i32 %107, 4
  %109 = icmp ne i32 %108, 0
  br i1 %109, label %110, label %117

110:                                              ; preds = %103
  %111 = load ptr, ptr %23, align 8
  %112 = getelementptr inbounds %struct._zval_struct, ptr %111, i32 1
  store ptr %112, ptr %23, align 8
  %113 = load i32, ptr %21, align 4
  %114 = zext i32 %113 to i64
  store i64 %114, ptr %19, align 8
  %115 = load i32, ptr %21, align 4
  %116 = add i32 %115, 1
  store i32 %116, ptr %21, align 4
  br label %128

117:                                              ; preds = %103
  %118 = load ptr, ptr %23, align 8
  store ptr %118, ptr %26, align 8
  %119 = load ptr, ptr %26, align 8
  %120 = getelementptr inbounds %struct._Bucket, ptr %119, i64 1
  %121 = getelementptr inbounds %struct._Bucket, ptr %120, i32 0, i32 0
  store ptr %121, ptr %23, align 8
  %122 = load ptr, ptr %26, align 8
  %123 = getelementptr inbounds %struct._Bucket, ptr %122, i32 0, i32 1
  %124 = load i64, ptr %123, align 8
  store i64 %124, ptr %19, align 8
  %125 = load ptr, ptr %26, align 8
  %126 = getelementptr inbounds %struct._Bucket, ptr %125, i32 0, i32 2
  %127 = load ptr, ptr %126, align 8
  store ptr %127, ptr %20, align 8
  br label %128

128:                                              ; preds = %117, %110
  %129 = load ptr, ptr %25, align 8
  store ptr %129, ptr %6, align 8
  %130 = load ptr, ptr %6, align 8
  %131 = getelementptr inbounds %struct._zval_struct, ptr %130, i32 0, i32 1
  %132 = load i8, ptr %131, align 8
  %133 = zext i8 %132 to i32
  %134 = icmp eq i32 %133, 0
  %135 = xor i1 %134, true
  %136 = xor i1 %135, true
  %137 = zext i1 %136 to i32
  %138 = sext i32 %137 to i64
  %139 = icmp ne i64 %138, 0
  br i1 %139, label %140, label %141

140:                                              ; preds = %128
  br label %217

141:                                              ; preds = %128
  %142 = load ptr, ptr %20, align 8
  store ptr %142, ptr %14, align 8
  %143 = load ptr, ptr %25, align 8
  store ptr %143, ptr %13, align 8
  %144 = load ptr, ptr %14, align 8
  %145 = icmp eq ptr %144, null
  br i1 %145, label %146, label %188

146:                                              ; preds = %141
  br label %147

147:                                              ; preds = %146
  %148 = load ptr, ptr %10, align 8
  %149 = getelementptr inbounds %struct._spl_fixedarray_object, ptr %148, i32 0, i32 0
  %150 = getelementptr inbounds %struct._spl_fixedarray, ptr %149, i32 0, i32 1
  %151 = load ptr, ptr %150, align 8
  %152 = load ptr, ptr %10, align 8
  %153 = getelementptr inbounds %struct._spl_fixedarray_object, ptr %152, i32 0, i32 0
  %154 = getelementptr inbounds %struct._spl_fixedarray, ptr %153, i32 0, i32 0
  %155 = load i64, ptr %154, align 8
  %156 = getelementptr inbounds %struct._zval_struct, ptr %151, i64 %155
  store ptr %156, ptr %27, align 8
  %157 = load ptr, ptr %13, align 8
  store ptr %157, ptr %28, align 8
  %158 = load ptr, ptr %28, align 8
  %159 = getelementptr inbounds %struct._zval_struct, ptr %158, i32 0, i32 0
  %160 = load ptr, ptr %159, align 8
  store ptr %160, ptr %29, align 8
  %161 = load ptr, ptr %28, align 8
  %162 = getelementptr inbounds %struct._zval_struct, ptr %161, i32 0, i32 1
  %163 = load i32, ptr %162, align 8
  store i32 %163, ptr %30, align 4
  br label %164

164:                                              ; preds = %147
  %165 = load ptr, ptr %29, align 8
  %166 = load ptr, ptr %27, align 8
  %167 = getelementptr inbounds %struct._zval_struct, ptr %166, i32 0, i32 0
  store ptr %165, ptr %167, align 8
  %168 = load i32, ptr %30, align 4
  %169 = load ptr, ptr %27, align 8
  %170 = getelementptr inbounds %struct._zval_struct, ptr %169, i32 0, i32 1
  store i32 %168, ptr %170, align 8
  br label %171

171:                                              ; preds = %164
  %172 = load i32, ptr %30, align 4
  %173 = and i32 %172, 65280
  %174 = icmp ne i32 %173, 0
  br i1 %174, label %175, label %181

175:                                              ; preds = %171
  %176 = load ptr, ptr %29, align 8
  %177 = getelementptr inbounds %struct._zend_refcounted, ptr %176, i32 0, i32 0
  store ptr %177, ptr %5, align 8
  %178 = load ptr, ptr %5, align 8
  %179 = load i32, ptr %178, align 4
  %180 = add i32 %179, 1
  store i32 %180, ptr %178, align 4
  br label %181

181:                                              ; preds = %175, %171
  br label %182

182:                                              ; preds = %181
  %183 = load ptr, ptr %10, align 8
  %184 = getelementptr inbounds %struct._spl_fixedarray_object, ptr %183, i32 0, i32 0
  %185 = getelementptr inbounds %struct._spl_fixedarray, ptr %184, i32 0, i32 0
  %186 = load i64, ptr %185, align 8
  %187 = add nsw i64 %186, 1
  store i64 %187, ptr %185, align 8
  br label %216

188:                                              ; preds = %141
  br label %189

189:                                              ; preds = %188
  %190 = load ptr, ptr %13, align 8
  %191 = getelementptr inbounds %struct._zval_struct, ptr %190, i32 0, i32 1
  %192 = getelementptr inbounds %struct.anon.0, ptr %191, i32 0, i32 1
  %193 = load i8, ptr %192, align 1
  %194 = zext i8 %193 to i32
  %195 = icmp ne i32 %194, 0
  br i1 %195, label %196, label %209

196:                                              ; preds = %189
  %197 = load ptr, ptr %13, align 8
  store ptr %197, ptr %4, align 8
  %198 = load ptr, ptr %4, align 8
  %199 = getelementptr inbounds %struct._zval_struct, ptr %198, i32 0, i32 1
  %200 = getelementptr inbounds %struct.anon.0, ptr %199, i32 0, i32 1
  %201 = load i8, ptr %200, align 1
  %202 = zext i8 %201 to i32
  %203 = icmp ne i32 %202, 0
  call void @llvm.assume(i1 %203)
  %204 = load ptr, ptr %4, align 8
  %205 = load ptr, ptr %204, align 8
  store ptr %205, ptr %3, align 8
  %206 = load ptr, ptr %3, align 8
  %207 = load i32, ptr %206, align 4
  %208 = add i32 %207, 1
  store i32 %208, ptr %206, align 4
  br label %209

209:                                              ; preds = %196, %189
  br label %210

210:                                              ; preds = %209
  %211 = getelementptr inbounds %struct._zval_struct, ptr %12, i32 0, i32 0
  %212 = load ptr, ptr %211, align 8
  %213 = load ptr, ptr %14, align 8
  %214 = load ptr, ptr %13, align 8
  %215 = call ptr @zend_hash_add(ptr noundef %212, ptr noundef %213, ptr noundef %214)
  br label %216

216:                                              ; preds = %210, %182
  br label %217

217:                                              ; preds = %216, %140
  %218 = load i32, ptr %24, align 4
  %219 = add i32 %218, -1
  store i32 %219, ptr %24, align 4
  br label %100

220:                                              ; preds = %100
  br label %221

221:                                              ; preds = %220
  %222 = load ptr, ptr %10, align 8
  %223 = getelementptr inbounds %struct._spl_fixedarray_object, ptr %222, i32 0, i32 0
  %224 = getelementptr inbounds %struct._spl_fixedarray, ptr %223, i32 0, i32 0
  %225 = load i64, ptr %224, align 8
  %226 = load i64, ptr %15, align 8
  %227 = icmp ne i64 %225, %226
  br i1 %227, label %228, label %257

228:                                              ; preds = %221
  %229 = load ptr, ptr %10, align 8
  %230 = getelementptr inbounds %struct._spl_fixedarray_object, ptr %229, i32 0, i32 0
  %231 = getelementptr inbounds %struct._spl_fixedarray, ptr %230, i32 0, i32 0
  %232 = load i64, ptr %231, align 8
  %233 = icmp ne i64 %232, 0
  br i1 %233, label %234, label %248

234:                                              ; preds = %228
  %235 = load ptr, ptr %10, align 8
  %236 = getelementptr inbounds %struct._spl_fixedarray_object, ptr %235, i32 0, i32 0
  %237 = getelementptr inbounds %struct._spl_fixedarray, ptr %236, i32 0, i32 1
  %238 = load ptr, ptr %237, align 8
  %239 = load ptr, ptr %10, align 8
  %240 = getelementptr inbounds %struct._spl_fixedarray_object, ptr %239, i32 0, i32 0
  %241 = getelementptr inbounds %struct._spl_fixedarray, ptr %240, i32 0, i32 0
  %242 = load i64, ptr %241, align 8
  %243 = mul i64 16, %242
  %244 = call ptr @_erealloc(ptr noundef %238, i64 noundef %243) #9
  %245 = load ptr, ptr %10, align 8
  %246 = getelementptr inbounds %struct._spl_fixedarray_object, ptr %245, i32 0, i32 0
  %247 = getelementptr inbounds %struct._spl_fixedarray, ptr %246, i32 0, i32 1
  store ptr %244, ptr %247, align 8
  br label %256

248:                                              ; preds = %228
  %249 = load ptr, ptr %10, align 8
  %250 = getelementptr inbounds %struct._spl_fixedarray_object, ptr %249, i32 0, i32 0
  %251 = getelementptr inbounds %struct._spl_fixedarray, ptr %250, i32 0, i32 1
  %252 = load ptr, ptr %251, align 8
  call void @_efree(ptr noundef %252)
  %253 = load ptr, ptr %10, align 8
  %254 = getelementptr inbounds %struct._spl_fixedarray_object, ptr %253, i32 0, i32 0
  %255 = getelementptr inbounds %struct._spl_fixedarray, ptr %254, i32 0, i32 1
  store ptr null, ptr %255, align 8
  br label %256

256:                                              ; preds = %248, %234
  br label %257

257:                                              ; preds = %256, %221
  %258 = load ptr, ptr %10, align 8
  %259 = getelementptr inbounds %struct._spl_fixedarray_object, ptr %258, i32 0, i32 2
  %260 = getelementptr inbounds %struct._zval_struct, ptr %12, i32 0, i32 0
  %261 = load ptr, ptr %260, align 8
  call void @object_properties_load(ptr noundef %259, ptr noundef %261)
  call void @zval_ptr_dtor(ptr noundef %12)
  br label %262

262:                                              ; preds = %257, %64, %47, %43
  ret void
}