; Function Attrs: nounwind uwtable
define hidden void @zim_SplFixedArray___unserialize(ptr nocapture noundef readonly %0, ptr nocapture readnone %1) #0 {
  %3 = alloca ptr, align 8
  %4 = alloca %struct._zval_struct, align 8
  %5 = getelementptr inbounds i8, ptr %0, i64 32
  %6 = load ptr, ptr %5, align 8
  %7 = getelementptr inbounds i8, ptr %6, i64 -32
  %8 = getelementptr inbounds i8, ptr %0, i64 44
  %9 = load i32, ptr %8, align 4
  %10 = call i32 (i32, ptr, ...) @zend_parse_parameters(i32 noundef %9, ptr noundef nonnull @.str.2, ptr noundef nonnull %3) #12
  %11 = icmp eq i32 %10, -1
  br i1 %11, label %12, label %15

12:                                               ; preds = %2
  %13 = load ptr, ptr getelementptr inbounds (%struct._zend_executor_globals, ptr @executor_globals, i64 0, i32 50), align 8
  %14 = icmp ne ptr %13, null
  call void @llvm.assume(i1 %14)
  br label %85

15:                                               ; preds = %2
  %16 = load i64, ptr %7, align 8
  %17 = icmp eq i64 %16, 0
  br i1 %17, label %18, label %85

18:                                               ; preds = %15
  %19 = load ptr, ptr %3, align 8
  %20 = getelementptr inbounds i8, ptr %19, i64 28
  %21 = load i32, ptr %20, align 4
  %22 = zext i32 %21 to i64
  %.not.i = icmp eq i32 %21, 0
  br i1 %.not.i, label %spl_fixedarray_init_non_empty_struct.exit.thread, label %25

spl_fixedarray_init_non_empty_struct.exit.thread: ; preds = %18
  %23 = getelementptr inbounds i8, ptr %6, i64 -24
  store ptr null, ptr %23, align 8
  store i64 %22, ptr %7, align 8
  %24 = getelementptr inbounds i8, ptr %6, i64 -16
  store i64 -1, ptr %24, align 8
  br label %85

25:                                               ; preds = %18
  %26 = call noalias ptr @_safe_emalloc(i64 noundef %22, i64 noundef 16, i64 noundef 0) #12
  %27 = getelementptr inbounds i8, ptr %6, i64 -24
  store ptr %26, ptr %27, align 8
  store i64 %22, ptr %7, align 8
  %28 = getelementptr inbounds i8, ptr %6, i64 -16
  store i64 -1, ptr %28, align 8
  %29 = call ptr @_zend_new_array_0() #12
  store ptr %29, ptr %4, align 8
  %30 = getelementptr inbounds i8, ptr %4, i64 8
  store i32 775, ptr %30, align 8
  store i64 0, ptr %7, align 8
  %31 = load ptr, ptr %3, align 8
  %32 = getelementptr inbounds i8, ptr %31, i64 8
  %33 = getelementptr inbounds i8, ptr %31, i64 24
  %34 = load i32, ptr %33, align 8
  %.not6874 = icmp eq i32 %34, 0
  br i1 %.not6874, label %.thread, label %.lr.ph.preheader

.lr.ph.preheader:                                 ; preds = %25
  %35 = getelementptr inbounds i8, ptr %31, i64 16
  %36 = load ptr, ptr %35, align 8
  br label %.lr.ph

.lr.ph:                                           ; preds = %.lr.ph.preheader, %75
  %.078 = phi ptr [ %.1, %75 ], [ null, %.lr.ph.preheader ]
  %.06376 = phi ptr [ %.164, %75 ], [ %36, %.lr.ph.preheader ]
  %.06575 = phi i32 [ %76, %75 ], [ %34, %.lr.ph.preheader ]
  %37 = load i32, ptr %32, align 8
  %38 = and i32 %37, 4
  %.not71 = icmp eq i32 %38, 0
  br i1 %.not71, label %41, label %39

39:                                               ; preds = %.lr.ph
  %40 = getelementptr inbounds i8, ptr %.06376, i64 16
  br label %45

41:                                               ; preds = %.lr.ph
  %42 = getelementptr inbounds i8, ptr %.06376, i64 32
  %43 = getelementptr inbounds i8, ptr %.06376, i64 24
  %44 = load ptr, ptr %43, align 8
  br label %45

45:                                               ; preds = %41, %39
  %.164 = phi ptr [ %40, %39 ], [ %42, %41 ]
  %.1 = phi ptr [ %.078, %39 ], [ %44, %41 ]
  %46 = getelementptr inbounds i8, ptr %.06376, i64 8
  %47 = load i8, ptr %46, align 8
  %48 = icmp eq i8 %47, 0
  br i1 %48, label %75, label %49

49:                                               ; preds = %45
  %50 = icmp eq ptr %.1, null
  br i1 %50, label %51, label %65

51:                                               ; preds = %49
  %52 = load ptr, ptr %27, align 8
  %53 = load i64, ptr %7, align 8
  %54 = getelementptr inbounds %struct._zval_struct, ptr %52, i64 %53
  %55 = load ptr, ptr %.06376, align 8
  %56 = load i32, ptr %46, align 8
  store ptr %55, ptr %54, align 8
  %57 = getelementptr inbounds i8, ptr %54, i64 8
  store i32 %56, ptr %57, align 8
  %58 = and i32 %56, 65280
  %.not73 = icmp eq i32 %58, 0
  br i1 %.not73, label %62, label %59

59:                                               ; preds = %51
  %60 = load i32, ptr %55, align 4
  %61 = add i32 %60, 1
  store i32 %61, ptr %55, align 4
  br label %62

62:                                               ; preds = %51, %59
  %63 = load i64, ptr %7, align 8
  %64 = add nsw i64 %63, 1
  store i64 %64, ptr %7, align 8
  br label %75

65:                                               ; preds = %49
  %66 = getelementptr inbounds i8, ptr %.06376, i64 9
  %67 = load i8, ptr %66, align 1
  %.not72 = icmp eq i8 %67, 0
  br i1 %.not72, label %72, label %68

68:                                               ; preds = %65
  %69 = load ptr, ptr %.06376, align 8
  %70 = load i32, ptr %69, align 4
  %71 = add i32 %70, 1
  store i32 %71, ptr %69, align 4
  br label %72

72:                                               ; preds = %65, %68
  %73 = load ptr, ptr %4, align 8
  %74 = call ptr @zend_hash_add(ptr noundef %73, ptr noundef nonnull %.1, ptr noundef nonnull %.06376) #12
  br label %75

75:                                               ; preds = %62, %72, %45
  %76 = add i32 %.06575, -1
  %.not68 = icmp eq i32 %76, 0
  br i1 %.not68, label %._crit_edge, label %.lr.ph

._crit_edge:                                      ; preds = %75
  %.pre = load i64, ptr %7, align 8
  %.not69 = icmp eq i64 %.pre, %22
  br i1 %.not69, label %83, label %77

77:                                               ; preds = %._crit_edge
  %.not70 = icmp eq i64 %.pre, 0
  br i1 %.not70, label %.thread, label %78

78:                                               ; preds = %77
  %79 = load ptr, ptr %27, align 8
  %80 = shl i64 %.pre, 4
  %81 = call ptr @_erealloc(ptr noundef %79, i64 noundef %80) #13
  br label %.sink.split

.thread:                                          ; preds = %25, %77
  %82 = load ptr, ptr %27, align 8
  call void @_efree(ptr noundef %82) #12
  br label %.sink.split

.sink.split:                                      ; preds = %.thread, %78
  %.sink = phi ptr [ %81, %78 ], [ null, %.thread ]
  store ptr %.sink, ptr %27, align 8
  br label %83

83:                                               ; preds = %.sink.split, %._crit_edge
  %84 = load ptr, ptr %4, align 8
  call void @object_properties_load(ptr noundef nonnull %6, ptr noundef %84) #12
  call void @zval_ptr_dtor(ptr noundef nonnull %4) #12
  br label %85

85:                                               ; preds = %spl_fixedarray_init_non_empty_struct.exit.thread, %83, %15, %12
  ret void
}